; ModuleID = '44/413.c'
source_filename = "44/413.c"
target datalayout = "e-m:e-p270:32:32-p271:32:32-p272:64:64-i64:64-f80:128-n8:16:32:64-S128"
target triple = "x86_64-pc-linux-gnu"

@.str = private unnamed_addr constant [3 x i8] c"%d\00", align 1
@.str.1 = private unnamed_addr constant [4 x i8] c"%d\0A\00", align 1

; Function Attrs: noinline nounwind uwtable
define dso_local i32 @reverse(i32 %0) #0 {
  %2 = alloca i32, align 4
  %3 = alloca i32, align 4
  %4 = alloca [1000 x i32], align 16
  %5 = alloca i32, align 4
  %6 = alloca i32, align 4
  %7 = alloca i32, align 4
  store i32 %0, i32* %2, align 4
  store i32 0, i32* %5, align 4
  store i32 0, i32* %6, align 4
  store i32 0, i32* %7, align 4
  %8 = load i32, i32* %2, align 4
  %9 = icmp slt i32 %8, 0
  br i1 %9, label %10, label %13

10:                                               ; preds = %1
  %11 = load i32, i32* %2, align 4
  %12 = mul nsw i32 %11, -1
  store i32 %12, i32* %2, align 4
  store i32 1, i32* %7, align 4
  br label %13

13:                                               ; preds = %10, %1
  br label %14

14:                                               ; preds = %17, %13
  %15 = load i32, i32* %2, align 4
  %16 = icmp sgt i32 %15, 0
  br i1 %16, label %17, label %26

17:                                               ; preds = %14
  %18 = load i32, i32* %2, align 4
  %19 = srem i32 %18, 10
  %20 = load i32, i32* %5, align 4
  %21 = add nsw i32 %20, 1
  store i32 %21, i32* %5, align 4
  %22 = sext i32 %20 to i64
  %23 = getelementptr inbounds [1000 x i32], [1000 x i32]* %4, i64 0, i64 %22
  store i32 %19, i32* %23, align 4
  %24 = load i32, i32* %2, align 4
  %25 = sdiv i32 %24, 10
  store i32 %25, i32* %2, align 4
  br label %14

26:                                               ; preds = %14
  store i32 0, i32* %3, align 4
  br label %27

27:                                               ; preds = %48, %26
  %28 = load i32, i32* %3, align 4
  %29 = load i32, i32* %5, align 4
  %30 = icmp slt i32 %28, %29
  br i1 %30, label %31, label %51

31:                                               ; preds = %27
  %32 = load i32, i32* %3, align 4
  %33 = sext i32 %32 to i64
  %34 = getelementptr inbounds [1000 x i32], [1000 x i32]* %4, i64 0, i64 %33
  %35 = load i32, i32* %34, align 4
  %36 = sitofp i32 %35 to double
  %37 = load i32, i32* %5, align 4
  %38 = load i32, i32* %3, align 4
  %39 = sub nsw i32 %37, %38
  %40 = sub nsw i32 %39, 1
  %41 = sitofp i32 %40 to double
  %42 = call double @pow(double 1.000000e+01, double %41) #3
  %43 = fmul double %36, %42
  %44 = load i32, i32* %6, align 4
  %45 = sitofp i32 %44 to double
  %46 = fadd double %45, %43
  %47 = fptosi double %46 to i32
  store i32 %47, i32* %6, align 4
  br label %48

48:                                               ; preds = %31
  %49 = load i32, i32* %3, align 4
  %50 = add nsw i32 %49, 1
  store i32 %50, i32* %3, align 4
  br label %27

51:                                               ; preds = %27
  %52 = load i32, i32* %7, align 4
  %53 = icmp eq i32 %52, 1
  br i1 %53, label %54, label %57

54:                                               ; preds = %51
  %55 = load i32, i32* %6, align 4
  %56 = mul nsw i32 %55, -1
  store i32 %56, i32* %6, align 4
  br label %57

57:                                               ; preds = %54, %51
  %58 = load i32, i32* %6, align 4
  ret i32 %58
}

; Function Attrs: nounwind
declare dso_local double @pow(double, double) #1

; Function Attrs: noinline nounwind uwtable
define dso_local i32 @main() #0 {
  %1 = alloca i32, align 4
  %2 = alloca i32, align 4
  %3 = alloca i32, align 4
  %4 = alloca i32, align 4
  store i32 0, i32* %1, align 4
  store i32 0, i32* %2, align 4
  br label %5

5:                                                ; preds = %14, %0
  %6 = load i32, i32* %2, align 4
  %7 = icmp slt i32 %6, 6
  br i1 %7, label %8, label %17

8:                                                ; preds = %5
  %9 = call i32 (i8*, ...) @__isoc99_scanf(i8* getelementptr inbounds ([3 x i8], [3 x i8]* @.str, i64 0, i64 0), i32* %3)
  %10 = load i32, i32* %3, align 4
  %11 = call i32 @reverse(i32 %10)
  store i32 %11, i32* %4, align 4
  %12 = load i32, i32* %4, align 4
  %13 = call i32 (i8*, ...) @printf(i8* getelementptr inbounds ([4 x i8], [4 x i8]* @.str.1, i64 0, i64 0), i32 %12)
  br label %14

14:                                               ; preds = %8
  %15 = load i32, i32* %2, align 4
  %16 = add nsw i32 %15, 1
  store i32 %16, i32* %2, align 4
  br label %5

17:                                               ; preds = %5
  %18 = call i32 (i8*, ...) @__isoc99_scanf(i8* getelementptr inbounds ([3 x i8], [3 x i8]* @.str, i64 0, i64 0), i32* %2)
  ret i32 0
}

declare dso_local i32 @__isoc99_scanf(i8*, ...) #2

declare dso_local i32 @printf(i8*, ...) #2


!llvm.module.flags = !{!0}
!llvm.ident = !{!1}

!0 = !{i32 1, !"wchar_size", i32 4}
!1 = !{!"clang version 10.0.0-4ubuntu1 "}
